; Function Attrs: nounwind uwtable
define hidden range(i32 0, 13) i32 @mi_reserve_huge_os_pages(i64 noundef %0, double noundef %1, ptr noundef writeonly captures(address_is_null) %2) local_unnamed_addr #0 {
  tail call void (ptr, ...) @_mi_warning_message(ptr noundef nonnull @.str.16) #20
  %.not = icmp eq ptr %2, null
  br i1 %.not, label %5, label %4

4:                                                ; preds = %3
  store i64 0, ptr %2, align 8, !tbaa !25
  br label %5

5:                                                ; preds = %4, %3
  %6 = fmul double %1, 1.000000e+03
  %7 = fptoui double %6 to i64
  %8 = icmp eq i64 %0, 0
  br i1 %8, label %mi_reserve_huge_os_pages_interleave.exit, label %9

9:                                                ; preds = %5
  %10 = load atomic i64, ptr @_mi_numa_node_count monotonic, align 8
  %.not.i.i = icmp eq i64 %10, 0
  br i1 %.not.i.i, label %11, label %_mi_os_numa_node_count.exit.i, !prof !89

11:                                               ; preds = %9
  %12 = tail call i64 @_mi_os_numa_node_count_get() #20
  br label %_mi_os_numa_node_count.exit.i

_mi_os_numa_node_count.exit.i:                    ; preds = %11, %9
  %13 = phi i64 [ %12, %11 ], [ %10, %9 ]
  %spec.store.select.i = tail call i64 @llvm.umax.i64(i64 %13, i64 1)
  %14 = udiv i64 %0, %spec.store.select.i
  %15 = urem i64 %0, %spec.store.select.i
  %16 = icmp eq i64 %7, 0
  br i1 %16, label %20, label %17

17:                                               ; preds = %_mi_os_numa_node_count.exit.i
  %18 = udiv i64 %7, %spec.store.select.i
  %19 = add i64 %18, 50
  br label %20

20:                                               ; preds = %17, %_mi_os_numa_node_count.exit.i
  %21 = phi i64 [ %19, %17 ], [ 0, %_mi_os_numa_node_count.exit.i ]
  br label %22

22:                                               ; preds = %27, %20
  %.03549.i = phi i64 [ 0, %20 ], [ %28, %27 ]
  %.03648.i = phi i64 [ %0, %20 ], [ %.238.i, %27 ]
  %23 = icmp ult i64 %.03549.i, %15
  %24 = zext i1 %23 to i64
  %spec.select.i = add i64 %14, %24
  %25 = trunc i64 %.03549.i to i32
  %26 = tail call range(i32 0, 13) i32 @mi_reserve_huge_os_pages_at_ex(i64 noundef %spec.select.i, i32 noundef %25, i64 noundef %21, i1 noundef zeroext false, ptr noundef null) #19
  %.not43.i = icmp eq i32 %26, 0
  br i1 %.not43.i, label %27, label %mi_reserve_huge_os_pages_interleave.exit.thread

27:                                               ; preds = %22
  %.238.i = tail call i64 @llvm.usub.sat.i64(i64 %.03648.i, i64 %spec.select.i)
  %28 = add nuw i64 %.03549.i, 1
  %29 = icmp ule i64 %13, %28
  %30 = icmp ule i64 %.03648.i, %spec.select.i
  %.not46.i = select i1 %29, i1 true, i1 %30
  br i1 %.not46.i, label %mi_reserve_huge_os_pages_interleave.exit, label %22, !llvm.loop !90

mi_reserve_huge_os_pages_interleave.exit:         ; preds = %27, %5
  br i1 %.not, label %mi_reserve_huge_os_pages_interleave.exit.thread, label %31

31:                                               ; preds = %mi_reserve_huge_os_pages_interleave.exit
  store i64 %0, ptr %2, align 8, !tbaa !25
  br label %mi_reserve_huge_os_pages_interleave.exit.thread

mi_reserve_huge_os_pages_interleave.exit.thread:  ; preds = %22, %31, %mi_reserve_huge_os_pages_interleave.exit
  %.0.i11 = phi i32 [ 0, %31 ], [ 0, %mi_reserve_huge_os_pages_interleave.exit ], [ %26, %22 ]
  ret i32 %.0.i11
}